; Function Attrs: mustprogress uwtable
define internal void @_ZN2cv12cpu_baselineL5cvt8uEPKhmS2_mPhmNS_5Size_IiEEPv(ptr nocapture noundef readonly %0, i64 noundef %1, ptr nocapture readnone %2, i64 %3, ptr nocapture noundef writeonly %4, i64 noundef %5, i64 %6, ptr nocapture readnone %7) #0 personality ptr @__gxx_personality_v0 {
  %9 = alloca %"class.cv::utils::trace::details::Region", align 8
  call void @_ZN2cv5utils5trace7details6RegionC1ERKNS3_21LocationStaticStorageE(ptr noundef nonnull align 8 dereferenceable(12) %9, ptr noundef nonnull align 8 dereferenceable(32) @_ZZN2cv12cpu_baselineL5cvt8uEPKhmS2_mPhmNS_5Size_IiEEPvE25__cv_trace_location_fn266)
  %.sroa.2.0.extract.shift.i = lshr i64 %6, 32
  %.sroa.2.0.extract.trunc.i = trunc nuw i64 %.sroa.2.0.extract.shift.i to i32
  %sext.i = shl i64 %6, 32
  %10 = ashr exact i64 %sext.i, 32
  %11 = icmp sgt i32 %.sroa.2.0.extract.trunc.i, 0
  br i1 %11, label %.lr.ph.i, label %_ZN2cv12cpu_baselineL7cvtCopyEPKhmPhmNS_5Size_IiEEm.exit

.lr.ph.i:                                         ; preds = %8, %.lr.ph.i
  %.013.i = phi i32 [ %12, %.lr.ph.i ], [ 0, %8 ]
  %.0912.i = phi ptr [ %13, %.lr.ph.i ], [ %0, %8 ]
  %.01011.i = phi ptr [ %14, %.lr.ph.i ], [ %4, %8 ]
  call void @llvm.memcpy.p0.p0.i64(ptr align 1 %.01011.i, ptr align 1 %.0912.i, i64 %10, i1 false)
  %12 = add nuw nsw i32 %.013.i, 1
  %13 = getelementptr inbounds i8, ptr %.0912.i, i64 %1
  %14 = getelementptr inbounds i8, ptr %.01011.i, i64 %5
  %exitcond.not.i = icmp eq i32 %12, %.sroa.2.0.extract.trunc.i
  br i1 %exitcond.not.i, label %_ZN2cv12cpu_baselineL7cvtCopyEPKhmPhmNS_5Size_IiEEm.exit, label %.lr.ph.i, !llvm.loop !9

_ZN2cv12cpu_baselineL7cvtCopyEPKhmPhmNS_5Size_IiEEm.exit: ; preds = %.lr.ph.i, %8
  %15 = getelementptr inbounds i8, ptr %9, i64 8
  %16 = load i32, ptr %15, align 8
  %.not.i = icmp eq i32 %16, 0
  br i1 %.not.i, label %_ZN2cv5utils5trace7details6RegionD2Ev.exit, label %17

17:                                               ; preds = %_ZN2cv12cpu_baselineL7cvtCopyEPKhmPhmNS_5Size_IiEEm.exit
  invoke void @_ZN2cv5utils5trace7details6Region7destroyEv(ptr noundef nonnull align 8 dereferenceable(12) %9)
          to label %_ZN2cv5utils5trace7details6RegionD2Ev.exit unwind label %18

18:                                               ; preds = %17
  %19 = landingpad { ptr, i32 }
          catch ptr null
  %20 = extractvalue { ptr, i32 } %19, 0
  call void @__clang_call_terminate(ptr %20) #14
  unreachable

_ZN2cv5utils5trace7details6RegionD2Ev.exit:       ; preds = %_ZN2cv12cpu_baselineL7cvtCopyEPKhmPhmNS_5Size_IiEEm.exit, %17
  ret void
}